; Function Attrs: nounwind sspstrong uwtable
define internal fastcc void @fbuffer_realloc(ptr noundef captures(none) %0, i64 noundef %1) unnamed_addr #0 {
  %3 = getelementptr inbounds nuw i8, ptr %0, i64 24
  %4 = load i64, ptr %3, align 8, !tbaa !47
  %5 = icmp ugt i64 %1, %4
  br i1 %5, label %6, label %17

6:                                                ; preds = %2
  %7 = load i32, ptr %0, align 8, !tbaa !45
  %8 = icmp eq i32 %7, 1
  %9 = getelementptr inbounds nuw i8, ptr %0, i64 32
  %10 = load ptr, ptr %9, align 8, !tbaa !46
  br i1 %8, label %rbimpl_size_mul_or_raise.exit, label %15

rbimpl_size_mul_or_raise.exit:                    ; preds = %6
  %11 = tail call noalias nonnull ptr @ruby_xmalloc2(i64 noundef %1, i64 noundef 1) #29
  store ptr %11, ptr %9, align 8, !tbaa !46
  store i32 0, ptr %0, align 8, !tbaa !45
  %12 = getelementptr inbounds nuw i8, ptr %0, i64 16
  %13 = load i64, ptr %12, align 8, !tbaa !56
  %.not.i = icmp eq i64 %13, 0
  br i1 %.not.i, label %ruby_nonempty_memcpy.exit, label %14

14:                                               ; preds = %rbimpl_size_mul_or_raise.exit
  tail call void @llvm.memcpy.p0.p0.i64(ptr noundef nonnull align 1 %11, ptr noundef nonnull readonly align 1 %10, i64 noundef range(i64 1, 0) %13, i1 noundef false) #22
  br label %ruby_nonempty_memcpy.exit

15:                                               ; preds = %6
  %16 = tail call nonnull ptr @ruby_xrealloc2(ptr noundef %10, i64 noundef %1, i64 noundef 1) #30
  store ptr %16, ptr %9, align 8, !tbaa !46
  br label %ruby_nonempty_memcpy.exit

ruby_nonempty_memcpy.exit:                        ; preds = %14, %rbimpl_size_mul_or_raise.exit, %15
  store i64 %1, ptr %3, align 8, !tbaa !47
  br label %17

17:                                               ; preds = %ruby_nonempty_memcpy.exit, %2
  ret void
}